target datalayout = "e-m:e-p270:32:32-p271:32:32-p272:64:64-i64:64-i128:128-f80:128-n8:16:32:64-S128"
target triple = "x86_64-pc-linux-gnu"

; Function Attrs: nounwind uwtable
define internal void @decode_3p_track(ptr noundef %0, i32 noundef %1, i32 noundef %2, i32 noundef %3) #1 {
  %5 = alloca ptr, align 8
  %6 = alloca i32, align 4
  %7 = alloca i32, align 4
  %8 = alloca i32, align 4
  %9 = alloca i32, align 4
  store ptr %0, ptr %5, align 8, !tbaa !62
  store i32 %1, ptr %6, align 4, !tbaa !37
  store i32 %2, ptr %7, align 4, !tbaa !37
  store i32 %3, ptr %8, align 4, !tbaa !37
  call void @llvm.lifetime.start.p0(i64 4, ptr %9) #9
  %10 = load i32, ptr %6, align 4, !tbaa !37
  %11 = load i32, ptr %7, align 4, !tbaa !37
  %12 = mul nsw i32 2, %11
  %13 = sub nsw i32 %12, 1
  %14 = ashr i32 %10, %13
  %15 = and i32 %14, 1
  %16 = load i32, ptr %7, align 4, !tbaa !37
  %17 = sub nsw i32 %16, 1
  %18 = shl i32 %15, %17
  store i32 %18, ptr %9, align 4, !tbaa !37
  %19 = load ptr, ptr %5, align 8, !tbaa !62
  %20 = load i32, ptr %6, align 4, !tbaa !37
  %21 = ashr i32 %20, 0
  %22 = load i32, ptr %7, align 4, !tbaa !37
  %23 = mul nsw i32 2, %22
  %24 = sub nsw i32 %23, 1
  %25 = call i32 @av_zero_extend_c(i32 noundef %21, i32 noundef %24) #10
  %26 = load i32, ptr %7, align 4, !tbaa !37
  %27 = sub nsw i32 %26, 1
  %28 = load i32, ptr %8, align 4, !tbaa !37
  %29 = load i32, ptr %9, align 4, !tbaa !37
  %30 = add nsw i32 %28, %29
  call void @decode_2p_track(ptr noundef %19, i32 noundef %25, i32 noundef %27, i32 noundef %30)
  %31 = load ptr, ptr %5, align 8, !tbaa !62
  %32 = getelementptr inbounds i32, ptr %31, i64 2
  %33 = load i32, ptr %6, align 4, !tbaa !37
  %34 = load i32, ptr %7, align 4, !tbaa !37
  %35 = mul nsw i32 2, %34
  %36 = ashr i32 %33, %35
  %37 = load i32, ptr %7, align 4, !tbaa !37
  %38 = add nsw i32 %37, 1
  %39 = call i32 @av_zero_extend_c(i32 noundef %36, i32 noundef %38) #10
  %40 = load i32, ptr %7, align 4, !tbaa !37
  %41 = load i32, ptr %8, align 4, !tbaa !37
  call void @decode_1p_track(ptr noundef %32, i32 noundef %39, i32 noundef %40, i32 noundef %41)
  call void @llvm.lifetime.end.p0(i64 4, ptr %9) #9
  ret void
}

; Function Attrs: inlinehint nounwind uwtable
define internal void @decode_1p_track(ptr noundef %0, i32 noundef %1, i32 noundef %2, i32 noundef %3) #5 {
  %5 = alloca ptr, align 8
  %6 = alloca i32, align 4
  %7 = alloca i32, align 4
  %8 = alloca i32, align 4
  %9 = alloca i32, align 4
  store ptr %0, ptr %5, align 8, !tbaa !62
  store i32 %1, ptr %6, align 4, !tbaa !37
  store i32 %2, ptr %7, align 4, !tbaa !37
  store i32 %3, ptr %8, align 4, !tbaa !37
  call void @llvm.lifetime.start.p0(i64 4, ptr %9) #9
  %10 = load i32, ptr %6, align 4, !tbaa !37
  %11 = ashr i32 %10, 0
  %12 = load i32, ptr %7, align 4, !tbaa !37
  %13 = call i32 @av_zero_extend_c(i32 noundef %11, i32 noundef %12) #10
  %14 = load i32, ptr %8, align 4, !tbaa !37
  %15 = add i32 %13, %14
  store i32 %15, ptr %9, align 4, !tbaa !37
  %16 = load i32, ptr %6, align 4, !tbaa !37
  %17 = load i32, ptr %7, align 4, !tbaa !37
  %18 = ashr i32 %16, %17
  %19 = and i32 %18, 1
  %20 = icmp ne i32 %19, 0
  br i1 %20, label %21, label %24

21:                                               ; preds = %4
  %22 = load i32, ptr %9, align 4, !tbaa !37
  %23 = sub nsw i32 0, %22
  br label %26

24:                                               ; preds = %4
  %25 = load i32, ptr %9, align 4, !tbaa !37
  br label %26

26:                                               ; preds = %24, %21
  %27 = phi i32 [ %23, %21 ], [ %25, %24 ]
  %28 = load ptr, ptr %5, align 8, !tbaa !62
  %29 = getelementptr inbounds i32, ptr %28, i64 0
  store i32 %27, ptr %29, align 4, !tbaa !37
  call void @llvm.lifetime.end.p0(i64 4, ptr %9) #9
  ret void
}

; Function Attrs: inlinehint nounwind uwtable
define internal void @decode_2p_track(ptr noundef %0, i32 noundef %1, i32 noundef %2, i32 noundef %3) #5 {
  %5 = alloca ptr, align 8
  %6 = alloca i32, align 4
  %7 = alloca i32, align 4
  %8 = alloca i32, align 4
  %9 = alloca i32, align 4
  %10 = alloca i32, align 4
  store ptr %0, ptr %5, align 8, !tbaa !62
  store i32 %1, ptr %6, align 4, !tbaa !37
  store i32 %2, ptr %7, align 4, !tbaa !37
  store i32 %3, ptr %8, align 4, !tbaa !37
  call void @llvm.lifetime.start.p0(i64 4, ptr %9) #9
  %11 = load i32, ptr %6, align 4, !tbaa !37
  %12 = load i32, ptr %7, align 4, !tbaa !37
  %13 = ashr i32 %11, %12
  %14 = load i32, ptr %7, align 4, !tbaa !37
  %15 = call i32 @av_zero_extend_c(i32 noundef %13, i32 noundef %14) #10
  %16 = load i32, ptr %8, align 4, !tbaa !37
  %17 = add i32 %15, %16
  store i32 %17, ptr %9, align 4, !tbaa !37
  call void @llvm.lifetime.start.p0(i64 4, ptr %10) #9
  %18 = load i32, ptr %6, align 4, !tbaa !37
  %19 = ashr i32 %18, 0
  %20 = load i32, ptr %7, align 4, !tbaa !37
  %21 = call i32 @av_zero_extend_c(i32 noundef %19, i32 noundef %20) #10
  %22 = load i32, ptr %8, align 4, !tbaa !37
  %23 = add i32 %21, %22
  store i32 %23, ptr %10, align 4, !tbaa !37
  %24 = load i32, ptr %6, align 4, !tbaa !37
  %25 = load i32, ptr %7, align 4, !tbaa !37
  %26 = mul nsw i32 2, %25
  %27 = ashr i32 %24, %26
  %28 = and i32 %27, 1
  %29 = icmp ne i32 %28, 0
  br i1 %29, label %30, label %33

30:                                               ; preds = %4
  %31 = load i32, ptr %9, align 4, !tbaa !37
  %32 = sub nsw i32 0, %31
  br label %35

33:                                               ; preds = %4
  %34 = load i32, ptr %9, align 4, !tbaa !37
  br label %35

35:                                               ; preds = %33, %30
  %36 = phi i32 [ %32, %30 ], [ %34, %33 ]
  %37 = load ptr, ptr %5, align 8, !tbaa !62
  %38 = getelementptr inbounds i32, ptr %37, i64 0
  store i32 %36, ptr %38, align 4, !tbaa !37
  %39 = load i32, ptr %6, align 4, !tbaa !37
  %40 = load i32, ptr %7, align 4, !tbaa !37
  %41 = mul nsw i32 2, %40
  %42 = ashr i32 %39, %41
  %43 = and i32 %42, 1
  %44 = icmp ne i32 %43, 0
  br i1 %44, label %45, label %48

45:                                               ; preds = %35
  %46 = load i32, ptr %10, align 4, !tbaa !37
  %47 = sub nsw i32 0, %46
  br label %50

48:                                               ; preds = %35
  %49 = load i32, ptr %10, align 4, !tbaa !37
  br label %50

50:                                               ; preds = %48, %45
  %51 = phi i32 [ %47, %45 ], [ %49, %48 ]
  %52 = load ptr, ptr %5, align 8, !tbaa !62
  %53 = getelementptr inbounds i32, ptr %52, i64 1
  store i32 %51, ptr %53, align 4, !tbaa !37
  %54 = load i32, ptr %9, align 4, !tbaa !37
  %55 = load i32, ptr %10, align 4, !tbaa !37
  %56 = icmp sgt i32 %54, %55
  br i1 %56, label %57, label %62

57:                                               ; preds = %50
  %58 = load ptr, ptr %5, align 8, !tbaa !62
  %59 = getelementptr inbounds i32, ptr %58, i64 1
  %60 = load i32, ptr %59, align 4, !tbaa !37
  %61 = sub nsw i32 0, %60
  br label %66

62:                                               ; preds = %50
  %63 = load ptr, ptr %5, align 8, !tbaa !62
  %64 = getelementptr inbounds i32, ptr %63, i64 1
  %65 = load i32, ptr %64, align 4, !tbaa !37
  br label %66

66:                                               ; preds = %62, %57
  %67 = phi i32 [ %61, %57 ], [ %65, %62 ]
  %68 = load ptr, ptr %5, align 8, !tbaa !62
  %69 = getelementptr inbounds i32, ptr %68, i64 1
  store i32 %67, ptr %69, align 4, !tbaa !37
  call void @llvm.lifetime.end.p0(i64 4, ptr %10) #9
  call void @llvm.lifetime.end.p0(i64 4, ptr %9) #9
  ret void
}

; Function Attrs: alwaysinline nounwind willreturn memory(none) uwtable
define internal i32 @av_zero_extend_c(i32 noundef %0, i32 noundef %1) #8 {
  %3 = alloca i32, align 4
  %4 = alloca i32, align 4
  store i32 %0, ptr %3, align 4, !tbaa !37
  store i32 %1, ptr %4, align 4, !tbaa !37
  %5 = load i32, ptr %3, align 4, !tbaa !37
  %6 = load i32, ptr %4, align 4, !tbaa !37
  %7 = shl i32 1, %6
  %8 = sub i32 %7, 1
  %9 = and i32 %5, %8
  ret i32 %9
}

; Function Attrs: nounwind uwtable
define internal void @decode_4p_track(ptr noundef %0, i32 noundef %1, i32 noundef %2, i32 noundef %3) #1 {
  %5 = alloca ptr, align 8
  %6 = alloca i32, align 4
  %7 = alloca i32, align 4
  %8 = alloca i32, align 4
  %9 = alloca i32, align 4
  %10 = alloca i32, align 4
  %11 = alloca i32, align 4
  store ptr %0, ptr %5, align 8, !tbaa !62
  store i32 %1, ptr %6, align 4, !tbaa !37
  store i32 %2, ptr %7, align 4, !tbaa !37
  store i32 %3, ptr %8, align 4, !tbaa !37
  call void @llvm.lifetime.start.p0(i64 4, ptr %9) #9
  call void @llvm.lifetime.start.p0(i64 4, ptr %10) #9
  call void @llvm.lifetime.start.p0(i64 4, ptr %11) #9
  %12 = load i32, ptr %7, align 4, !tbaa !37
  %13 = sub nsw i32 %12, 1
  %14 = shl i32 1, %13
  store i32 %14, ptr %11, align 4, !tbaa !37
  %15 = load i32, ptr %6, align 4, !tbaa !37
  %16 = load i32, ptr %7, align 4, !tbaa !37
  %17 = mul nsw i32 4, %16
  %18 = sub nsw i32 %17, 2
  %19 = ashr i32 %15, %18
  %20 = call i32 @av_zero_extend_c(i32 noundef %19, i32 noundef 2) #10
  switch i32 %20, label %145 [
    i32 0, label %21
    i32 1, label %70
    i32 2, label %95
    i32 3, label %122
  ]

21:                                               ; preds = %4
  %22 = load i32, ptr %6, align 4, !tbaa !37
  %23 = load i32, ptr %7, align 4, !tbaa !37
  %24 = mul nsw i32 4, %23
  %25 = sub nsw i32 %24, 3
  %26 = ashr i32 %22, %25
  %27 = and i32 %26, 1
  %28 = load i32, ptr %7, align 4, !tbaa !37
  %29 = sub nsw i32 %28, 1
  %30 = shl i32 %27, %29
  store i32 %30, ptr %9, align 4, !tbaa !37
  %31 = load i32, ptr %6, align 4, !tbaa !37
  %32 = load i32, ptr %7, align 4, !tbaa !37
  %33 = mul nsw i32 2, %32
  %34 = sub nsw i32 %33, 3
  %35 = ashr i32 %31, %34
  %36 = and i32 %35, 1
  %37 = load i32, ptr %7, align 4, !tbaa !37
  %38 = sub nsw i32 %37, 2
  %39 = shl i32 %36, %38
  store i32 %39, ptr %10, align 4, !tbaa !37
  %40 = load ptr, ptr %5, align 8, !tbaa !62
  %41 = load i32, ptr %6, align 4, !tbaa !37
  %42 = ashr i32 %41, 0
  %43 = load i32, ptr %7, align 4, !tbaa !37
  %44 = mul nsw i32 2, %43
  %45 = sub nsw i32 %44, 3
  %46 = call i32 @av_zero_extend_c(i32 noundef %42, i32 noundef %45) #10
  %47 = load i32, ptr %7, align 4, !tbaa !37
  %48 = sub nsw i32 %47, 2
  %49 = load i32, ptr %8, align 4, !tbaa !37
  %50 = load i32, ptr %9, align 4, !tbaa !37
  %51 = add nsw i32 %49, %50
  %52 = load i32, ptr %10, align 4, !tbaa !37
  %53 = add nsw i32 %51, %52
  call void @decode_2p_track(ptr noundef %40, i32 noundef %46, i32 noundef %48, i32 noundef %53)
  %54 = load ptr, ptr %5, align 8, !tbaa !62
  %55 = getelementptr inbounds i32, ptr %54, i64 2
  %56 = load i32, ptr %6, align 4, !tbaa !37
  %57 = load i32, ptr %7, align 4, !tbaa !37
  %58 = mul nsw i32 2, %57
  %59 = sub nsw i32 %58, 2
  %60 = ashr i32 %56, %59
  %61 = load i32, ptr %7, align 4, !tbaa !37
  %62 = mul nsw i32 2, %61
  %63 = sub nsw i32 %62, 1
  %64 = call i32 @av_zero_extend_c(i32 noundef %60, i32 noundef %63) #10
  %65 = load i32, ptr %7, align 4, !tbaa !37
  %66 = sub nsw i32 %65, 1
  %67 = load i32, ptr %8, align 4, !tbaa !37
  %68 = load i32, ptr %9, align 4, !tbaa !37
  %69 = add nsw i32 %67, %68
  call void @decode_2p_track(ptr noundef %55, i32 noundef %64, i32 noundef %66, i32 noundef %69)
  br label %145

70:                                               ; preds = %4
  %71 = load ptr, ptr %5, align 8, !tbaa !62
  %72 = load i32, ptr %6, align 4, !tbaa !37
  %73 = load i32, ptr %7, align 4, !tbaa !37
  %74 = mul nsw i32 3, %73
  %75 = sub nsw i32 %74, 2
  %76 = ashr i32 %72, %75
  %77 = load i32, ptr %7, align 4, !tbaa !37
  %78 = call i32 @av_zero_extend_c(i32 noundef %76, i32 noundef %77) #10
  %79 = load i32, ptr %7, align 4, !tbaa !37
  %80 = sub nsw i32 %79, 1
  %81 = load i32, ptr %8, align 4, !tbaa !37
  call void @decode_1p_track(ptr noundef %71, i32 noundef %78, i32 noundef %80, i32 noundef %81)
  %82 = load ptr, ptr %5, align 8, !tbaa !62
  %83 = getelementptr inbounds i32, ptr %82, i64 1
  %84 = load i32, ptr %6, align 4, !tbaa !37
  %85 = ashr i32 %84, 0
  %86 = load i32, ptr %7, align 4, !tbaa !37
  %87 = mul nsw i32 3, %86
  %88 = sub nsw i32 %87, 2
  %89 = call i32 @av_zero_extend_c(i32 noundef %85, i32 noundef %88) #10
  %90 = load i32, ptr %7, align 4, !tbaa !37
  %91 = sub nsw i32 %90, 1
  %92 = load i32, ptr %8, align 4, !tbaa !37
  %93 = load i32, ptr %11, align 4, !tbaa !37
  %94 = add nsw i32 %92, %93
  call void @decode_3p_track(ptr noundef %83, i32 noundef %89, i32 noundef %91, i32 noundef %94)
  br label %145

95:                                               ; preds = %4
  %96 = load ptr, ptr %5, align 8, !tbaa !62
  %97 = load i32, ptr %6, align 4, !tbaa !37
  %98 = load i32, ptr %7, align 4, !tbaa !37
  %99 = mul nsw i32 2, %98
  %100 = sub nsw i32 %99, 1
  %101 = ashr i32 %97, %100
  %102 = load i32, ptr %7, align 4, !tbaa !37
  %103 = mul nsw i32 2, %102
  %104 = sub nsw i32 %103, 1
  %105 = call i32 @av_zero_extend_c(i32 noundef %101, i32 noundef %104) #10
  %106 = load i32, ptr %7, align 4, !tbaa !37
  %107 = sub nsw i32 %106, 1
  %108 = load i32, ptr %8, align 4, !tbaa !37
  call void @decode_2p_track(ptr noundef %96, i32 noundef %105, i32 noundef %107, i32 noundef %108)
  %109 = load ptr, ptr %5, align 8, !tbaa !62
  %110 = getelementptr inbounds i32, ptr %109, i64 2
  %111 = load i32, ptr %6, align 4, !tbaa !37
  %112 = ashr i32 %111, 0
  %113 = load i32, ptr %7, align 4, !tbaa !37
  %114 = mul nsw i32 2, %113
  %115 = sub nsw i32 %114, 1
  %116 = call i32 @av_zero_extend_c(i32 noundef %112, i32 noundef %115) #10
  %117 = load i32, ptr %7, align 4, !tbaa !37
  %118 = sub nsw i32 %117, 1
  %119 = load i32, ptr %8, align 4, !tbaa !37
  %120 = load i32, ptr %11, align 4, !tbaa !37
  %121 = add nsw i32 %119, %120
  call void @decode_2p_track(ptr noundef %110, i32 noundef %116, i32 noundef %118, i32 noundef %121)
  br label %145

122:                                              ; preds = %4
  %123 = load ptr, ptr %5, align 8, !tbaa !62
  %124 = load i32, ptr %6, align 4, !tbaa !37
  %125 = load i32, ptr %7, align 4, !tbaa !37
  %126 = ashr i32 %124, %125
  %127 = load i32, ptr %7, align 4, !tbaa !37
  %128 = mul nsw i32 3, %127
  %129 = sub nsw i32 %128, 2
  %130 = call i32 @av_zero_extend_c(i32 noundef %126, i32 noundef %129) #10
  %131 = load i32, ptr %7, align 4, !tbaa !37
  %132 = sub nsw i32 %131, 1
  %133 = load i32, ptr %8, align 4, !tbaa !37
  call void @decode_3p_track(ptr noundef %123, i32 noundef %130, i32 noundef %132, i32 noundef %133)
  %134 = load ptr, ptr %5, align 8, !tbaa !62
  %135 = getelementptr inbounds i32, ptr %134, i64 3
  %136 = load i32, ptr %6, align 4, !tbaa !37
  %137 = ashr i32 %136, 0
  %138 = load i32, ptr %7, align 4, !tbaa !37
  %139 = call i32 @av_zero_extend_c(i32 noundef %137, i32 noundef %138) #10
  %140 = load i32, ptr %7, align 4, !tbaa !37
  %141 = sub nsw i32 %140, 1
  %142 = load i32, ptr %8, align 4, !tbaa !37
  %143 = load i32, ptr %11, align 4, !tbaa !37
  %144 = add nsw i32 %142, %143
  call void @decode_1p_track(ptr noundef %135, i32 noundef %139, i32 noundef %141, i32 noundef %144)
  br label %145

145:                                              ; preds = %4, %122, %95, %70, %21
  call void @llvm.lifetime.end.p0(i64 4, ptr %11) #9
  call void @llvm.lifetime.end.p0(i64 4, ptr %10) #9
  call void @llvm.lifetime.end.p0(i64 4, ptr %9) #9
  ret void
}