; Function Attrs: mustprogress nofree norecurse nosync nounwind willreturn memory(argmem: write) uwtable
define internal fastcc void @decode_4p_track(ptr noundef nonnull writeonly captures(none) %0, i32 noundef range(i32 0, 1073790976) %1, i32 noundef range(i32 3, 5) %2, i32 noundef range(i32 1, 10) %3) unnamed_addr #7 {
  %5 = add nsw i32 %2, -1
  %6 = shl nuw nsw i32 1, %5
  %7 = shl nuw nsw i32 %2, 2
  %8 = add nsw i32 %7, -2
  %9 = lshr i32 %1, %8
  %10 = and i32 %9, 3
  switch i32 %10, label %default.unreachable82 [
    i32 0, label %11
    i32 1, label %66
    i32 2, label %117
    i32 3, label %157
  ]

11:                                               ; preds = %4
  %12 = add nsw i32 %7, -3
  %13 = lshr i32 %1, %12
  %14 = and i32 %13, 1
  %15 = shl nuw nsw i32 %14, %5
  %16 = shl nuw nsw i32 %2, 1
  %17 = add nsw i32 %16, -3
  %18 = lshr i32 %1, %17
  %19 = and i32 %18, 1
  %20 = add nsw i32 %2, -2
  %21 = shl nuw nsw i32 %19, %20
  %notmask.i = shl nsw i32 -1, %17
  %22 = xor i32 %notmask.i, -1
  %23 = and i32 %1, %22
  %24 = add nuw nsw i32 %15, %3
  %25 = add nuw nsw i32 %24, %21
  %26 = lshr i32 %23, %20
  %notmask.i.i = shl nsw i32 -1, %20
  %27 = xor i32 %notmask.i.i, -1
  %28 = and i32 %26, %27
  %29 = add nuw nsw i32 %25, %28
  %30 = and i32 %23, %27
  %31 = add nuw nsw i32 %25, %30
  %32 = shl nuw nsw i32 %20, 1
  %33 = shl nuw nsw i32 1, %32
  %34 = and i32 %23, %33
  %.not.i = icmp eq i32 %34, 0
  %35 = sub nsw i32 0, %29
  %36 = select i1 %.not.i, i32 %29, i32 %35
  store i32 %36, ptr %0, align 4, !tbaa !28
  %37 = sub nsw i32 0, %31
  %38 = select i1 %.not.i, i32 %31, i32 %37
  %39 = getelementptr inbounds nuw i8, ptr %0, i64 4
  %40 = icmp samesign ugt i32 %28, %30
  %41 = sub nsw i32 0, %38
  %42 = select i1 %40, i32 %41, i32 %38
  store i32 %42, ptr %39, align 4, !tbaa !28
  %43 = getelementptr inbounds nuw i8, ptr %0, i64 8
  %44 = add nsw i32 %16, -2
  %45 = lshr i32 %1, %44
  %46 = add nsw i32 %16, -1
  %notmask.i58 = shl nsw i32 -1, %46
  %47 = xor i32 %notmask.i58, -1
  %48 = and i32 %45, %47
  %49 = lshr i32 %48, %5
  %notmask.i.i65 = shl nsw i32 -1, %5
  %50 = xor i32 %notmask.i.i65, -1
  %51 = and i32 %49, %50
  %52 = add nuw nsw i32 %51, %24
  %53 = and i32 %48, %50
  %54 = add nuw nsw i32 %24, %53
  %55 = shl nuw nsw i32 %5, 1
  %56 = shl nuw nsw i32 1, %55
  %57 = and i32 %48, %56
  %.not.i66 = icmp eq i32 %57, 0
  %58 = sub nsw i32 0, %52
  %59 = select i1 %.not.i66, i32 %52, i32 %58
  store i32 %59, ptr %43, align 4, !tbaa !28
  %60 = sub nsw i32 0, %54
  %61 = select i1 %.not.i66, i32 %54, i32 %60
  %62 = getelementptr inbounds nuw i8, ptr %0, i64 12
  %63 = icmp samesign ugt i32 %51, %53
  %64 = sub nsw i32 0, %61
  %65 = select i1 %63, i32 %64, i32 %61
  store i32 %65, ptr %62, align 4, !tbaa !28
  br label %208

66:                                               ; preds = %4
  %67 = mul nuw nsw i32 %2, 3
  %68 = add nsw i32 %67, -2
  %69 = lshr i32 %1, %68
  %notmask.i59 = shl nsw i32 -1, %2
  %70 = xor i32 %notmask.i59, -1
  %71 = and i32 %69, %70
  %notmask.i.i67 = shl nsw i32 -1, %5
  %72 = xor i32 %notmask.i.i67, -1
  %73 = and i32 %71, %72
  %74 = add nuw nsw i32 %73, %3
  %75 = and i32 %71, %6
  %.not.i68 = icmp eq i32 %75, 0
  %76 = sub nsw i32 0, %74
  %77 = select i1 %.not.i68, i32 %74, i32 %76
  store i32 %77, ptr %0, align 4, !tbaa !28
  %78 = getelementptr inbounds nuw i8, ptr %0, i64 4
  %notmask.i60 = shl nsw i32 -1, %68
  %79 = xor i32 %notmask.i60, -1
  %80 = and i32 %1, %79
  %81 = add nuw nsw i32 %6, %3
  %82 = shl nuw nsw i32 %5, 1
  %83 = add nsw i32 %82, -1
  %84 = lshr i32 %80, %83
  %85 = and i32 %84, 1
  %86 = add nsw i32 %2, -2
  %87 = shl nuw nsw i32 %85, %86
  %notmask.i.i69 = shl nsw i32 -1, %83
  %88 = xor i32 %notmask.i.i69, -1
  %89 = and i32 %80, %88
  %90 = add nuw nsw i32 %87, %81
  %91 = lshr i32 %89, %86
  %notmask.i.i.i = shl nsw i32 -1, %86
  %92 = xor i32 %notmask.i.i.i, -1
  %93 = and i32 %91, %92
  %94 = add nuw nsw i32 %90, %93
  %95 = and i32 %89, %92
  %96 = add nuw nsw i32 %90, %95
  %97 = shl nuw nsw i32 %86, 1
  %98 = shl nuw nsw i32 1, %97
  %99 = and i32 %89, %98
  %.not.i.i = icmp eq i32 %99, 0
  %100 = sub nsw i32 0, %94
  %101 = select i1 %.not.i.i, i32 %94, i32 %100
  store i32 %101, ptr %78, align 4, !tbaa !28
  %102 = sub nsw i32 0, %96
  %103 = select i1 %.not.i.i, i32 %96, i32 %102
  %104 = getelementptr inbounds nuw i8, ptr %0, i64 8
  %105 = icmp samesign ugt i32 %93, %95
  %106 = sub nsw i32 0, %103
  %107 = select i1 %105, i32 %106, i32 %103
  store i32 %107, ptr %104, align 4, !tbaa !28
  %108 = getelementptr inbounds nuw i8, ptr %0, i64 12
  %109 = lshr i32 %80, %82
  %notmask.i14.i = shl i32 2147483647, %2
  %110 = xor i32 %notmask.i14.i, -1
  %111 = and i32 %109, %110
  %112 = and i32 %111, %72
  %113 = add nuw nsw i32 %112, %81
  %114 = and i32 %111, %6
  %.not.i16.i = icmp eq i32 %114, 0
  %115 = sub nsw i32 0, %113
  %116 = select i1 %.not.i16.i, i32 %113, i32 %115
  store i32 %116, ptr %108, align 4, !tbaa !28
  br label %208

117:                                              ; preds = %4
  %118 = shl nuw nsw i32 %2, 1
  %119 = add nsw i32 %118, -1
  %120 = lshr i32 %1, %119
  %notmask.i61 = shl nsw i32 -1, %119
  %121 = xor i32 %notmask.i61, -1
  %122 = and i32 %120, %121
  %123 = lshr i32 %122, %5
  %notmask.i.i70 = shl nsw i32 -1, %5
  %124 = xor i32 %notmask.i.i70, -1
  %125 = and i32 %123, %124
  %126 = add nuw nsw i32 %125, %3
  %127 = and i32 %122, %124
  %128 = add nuw nsw i32 %127, %3
  %129 = shl nuw nsw i32 %5, 1
  %130 = shl nuw nsw i32 1, %129
  %131 = and i32 %122, %130
  %.not.i71 = icmp eq i32 %131, 0
  %132 = sub nsw i32 0, %126
  %133 = select i1 %.not.i71, i32 %126, i32 %132
  store i32 %133, ptr %0, align 4, !tbaa !28
  %134 = sub nsw i32 0, %128
  %135 = select i1 %.not.i71, i32 %128, i32 %134
  %136 = getelementptr inbounds nuw i8, ptr %0, i64 4
  %137 = icmp samesign ugt i32 %125, %127
  %138 = sub nsw i32 0, %135
  %139 = select i1 %137, i32 %138, i32 %135
  store i32 %139, ptr %136, align 4, !tbaa !28
  %140 = getelementptr inbounds nuw i8, ptr %0, i64 8
  %141 = and i32 %1, %121
  %142 = add nuw nsw i32 %6, %3
  %143 = lshr i32 %141, %5
  %144 = and i32 %143, %124
  %145 = add nuw nsw i32 %144, %142
  %146 = and i32 %141, %124
  %147 = add nuw nsw i32 %146, %142
  %148 = and i32 %141, %130
  %.not.i73 = icmp eq i32 %148, 0
  %149 = sub nsw i32 0, %145
  %150 = select i1 %.not.i73, i32 %145, i32 %149
  store i32 %150, ptr %140, align 4, !tbaa !28
  %151 = sub nsw i32 0, %147
  %152 = select i1 %.not.i73, i32 %147, i32 %151
  %153 = getelementptr inbounds nuw i8, ptr %0, i64 12
  %154 = icmp samesign ugt i32 %144, %146
  %155 = sub nsw i32 0, %152
  %156 = select i1 %154, i32 %155, i32 %152
  store i32 %156, ptr %153, align 4, !tbaa !28
  br label %208

157:                                              ; preds = %4
  %158 = lshr i32 %1, %2
  %159 = mul nuw nsw i32 %2, 3
  %160 = add nsw i32 %159, -2
  %notmask.i63 = shl nsw i32 -1, %160
  %161 = xor i32 %notmask.i63, -1
  %162 = and i32 %158, %161
  %163 = shl nuw nsw i32 %5, 1
  %164 = add nsw i32 %163, -1
  %165 = lshr i32 %162, %164
  %166 = and i32 %165, 1
  %167 = add nsw i32 %2, -2
  %168 = shl nuw nsw i32 %166, %167
  %notmask.i.i74 = shl nsw i32 -1, %164
  %169 = xor i32 %notmask.i.i74, -1
  %170 = and i32 %162, %169
  %171 = add nuw nsw i32 %168, %3
  %172 = lshr i32 %170, %167
  %notmask.i.i.i75 = shl nsw i32 -1, %167
  %173 = xor i32 %notmask.i.i.i75, -1
  %174 = and i32 %172, %173
  %175 = add nuw nsw i32 %171, %174
  %176 = and i32 %170, %173
  %177 = add nuw nsw i32 %171, %176
  %178 = shl nuw nsw i32 %167, 1
  %179 = shl nuw nsw i32 1, %178
  %180 = and i32 %170, %179
  %.not.i.i76 = icmp eq i32 %180, 0
  %181 = sub nsw i32 0, %175
  %182 = select i1 %.not.i.i76, i32 %175, i32 %181
  store i32 %182, ptr %0, align 4, !tbaa !28
  %183 = sub nsw i32 0, %177
  %184 = select i1 %.not.i.i76, i32 %177, i32 %183
  %185 = getelementptr inbounds nuw i8, ptr %0, i64 4
  %186 = icmp samesign ugt i32 %174, %176
  %187 = sub nsw i32 0, %184
  %188 = select i1 %186, i32 %187, i32 %184
  store i32 %188, ptr %185, align 4, !tbaa !28
  %189 = getelementptr inbounds nuw i8, ptr %0, i64 8
  %190 = lshr i32 %162, %163
  %notmask.i14.i77 = shl i32 2147483647, %2
  %191 = xor i32 %notmask.i14.i77, -1
  %192 = and i32 %190, %191
  %notmask.i.i15.i78 = shl nsw i32 -1, %5
  %193 = xor i32 %notmask.i.i15.i78, -1
  %194 = and i32 %192, %193
  %195 = add nuw nsw i32 %194, %3
  %196 = and i32 %192, %6
  %.not.i16.i79 = icmp eq i32 %196, 0
  %197 = sub nsw i32 0, %195
  %198 = select i1 %.not.i16.i79, i32 %195, i32 %197
  store i32 %198, ptr %189, align 4, !tbaa !28
  %199 = getelementptr inbounds nuw i8, ptr %0, i64 12
  %notmask.i64 = shl nsw i32 -1, %2
  %200 = xor i32 %notmask.i64, -1
  %201 = and i32 %1, %200
  %202 = add nuw nsw i32 %6, %3
  %203 = and i32 %201, %193
  %204 = add nuw nsw i32 %202, %203
  %205 = and i32 %6, %201
  %.not.i81 = icmp eq i32 %205, 0
  %206 = sub nsw i32 0, %204
  %207 = select i1 %.not.i81, i32 %204, i32 %206
  store i32 %207, ptr %199, align 4, !tbaa !28
  br label %208

default.unreachable82:                            ; preds = %4
  unreachable

208:                                              ; preds = %157, %117, %66, %11
  ret void
}